target datalayout = "e-m:e-p270:32:32-p271:32:32-p272:64:64-i64:64-i128:128-f80:128-n8:16:32:64-S128"
target triple = "x86_64-pc-linux-gnu"

%struct.ItemPointerData = type { %struct.BlockIdData, i16 }
%struct.BlockIdData = type { i16, i16 }
%struct.IndexScanDescData = type { ptr, ptr, ptr, i32, i32, ptr, ptr, i8, i8, i8, i8, i8, ptr, ptr, ptr, ptr, ptr, %struct.ItemPointerData, i8, ptr, i8, ptr, ptr, i8, ptr }
%struct.BTScanOpaqueData = type { i8, i32, ptr, i32, i8, i8, i8, ptr, ptr, ptr, ptr, i32, ptr, ptr, i32, %struct.BTScanPosData, %struct.BTScanPosData }
%struct.BTScanPosData = type { i32, i32, i32, i32, i64, i32, i32, i8, i8, i32, i32, i32, [1358 x %struct.BTScanPosItem] }
%struct.BTScanPosItem = type { %struct.ItemPointerData, i16, i16 }

; Function Attrs: nounwind uwtable
define dso_local zeroext i1 @_bt_start_prim_scan(ptr noundef %0, i32 noundef %1) #0 {
  %3 = alloca i1, align 1
  %4 = alloca ptr, align 8
  %5 = alloca i32, align 4
  %6 = alloca ptr, align 8
  %7 = alloca i32, align 4
  store ptr %0, ptr %4, align 8
  store i32 %1, ptr %5, align 4
  call void @llvm.lifetime.start.p0(i64 8, ptr %6) #8
  %8 = load ptr, ptr %4, align 8
  %9 = getelementptr inbounds nuw %struct.IndexScanDescData, ptr %8, i32 0, i32 12
  %10 = load ptr, ptr %9, align 8
  store ptr %10, ptr %6, align 8
  %11 = load ptr, ptr %6, align 8
  %12 = getelementptr inbounds nuw %struct.BTScanOpaqueData, ptr %11, i32 0, i32 6
  store i8 0, ptr %12, align 2
  %13 = load ptr, ptr %6, align 8
  %14 = getelementptr inbounds nuw %struct.BTScanOpaqueData, ptr %13, i32 0, i32 5
  store i8 0, ptr %14, align 1
  %15 = load ptr, ptr %6, align 8
  %16 = getelementptr inbounds nuw %struct.BTScanOpaqueData, ptr %15, i32 0, i32 4
  %17 = load i8, ptr %16, align 4, !range !4, !noundef !5
  %18 = trunc i8 %17 to i1
  br i1 %18, label %19, label %20

19:                                               ; preds = %2
  store i1 true, ptr %3, align 1
  store i32 1, ptr %7, align 4
  br label %28

20:                                               ; preds = %2
  %21 = load ptr, ptr %4, align 8
  %22 = getelementptr inbounds nuw %struct.IndexScanDescData, ptr %21, i32 0, i32 24
  %23 = load ptr, ptr %22, align 8
  %24 = icmp ne ptr %23, null
  br i1 %24, label %25, label %27

25:                                               ; preds = %20
  %26 = load ptr, ptr %4, align 8
  call void @_bt_parallel_done(ptr noundef %26)
  br label %27

27:                                               ; preds = %25, %20
  store i1 false, ptr %3, align 1
  store i32 1, ptr %7, align 4
  br label %28

28:                                               ; preds = %27, %19
  call void @llvm.lifetime.end.p0(i64 8, ptr %6) #8
  %29 = load i1, ptr %3, align 1
  ret i1 %29
}