; Function Attrs: nounwind uwtable
define dso_local noundef zeroext i1 @_bt_start_prim_scan(ptr noundef %0, i32 noundef %1) local_unnamed_addr #0 {
  %3 = getelementptr inbounds nuw i8, ptr %0, i64 56
  %4 = load ptr, ptr %3, align 8
  %5 = getelementptr inbounds nuw i8, ptr %4, i64 22
  store i8 0, ptr %5, align 2
  %6 = getelementptr inbounds nuw i8, ptr %4, i64 21
  store i8 0, ptr %6, align 1
  %7 = getelementptr inbounds nuw i8, ptr %4, i64 20
  %8 = load i8, ptr %7, align 4, !range !4, !noundef !7
  %9 = trunc nuw i8 %8 to i1
  br i1 %9, label %14, label %10

10:                                               ; preds = %2
  %11 = getelementptr inbounds nuw i8, ptr %0, i64 144
  %12 = load ptr, ptr %11, align 8
  %.not = icmp eq ptr %12, null
  br i1 %.not, label %14, label %13

13:                                               ; preds = %10
  tail call void @_bt_parallel_done(ptr noundef nonnull %0) #14
  br label %14

14:                                               ; preds = %10, %13, %2
  ret i1 %9
}